target datalayout = "e-m:e-p270:32:32-p271:32:32-p272:64:64-i64:64-i128:128-f80:128-n8:16:32:64-S128"
target triple = "x86_64-pc-linux-gnu"

%struct.AVBSFContext = type { ptr, ptr, ptr, ptr, ptr, %struct.AVRational, %struct.AVRational }
%struct.AVRational = type { i32, i32 }
%struct.SetTSContext = type { ptr, ptr, ptr, ptr, ptr, %struct.AVRational, i64, [21 x double], ptr, ptr, ptr, ptr, ptr, ptr, ptr }
%struct.AVCodecParameters = type { i32, i32, i32, ptr, i32, ptr, i32, i32, i64, i32, i32, i32, i32, i32, i32, %struct.AVRational, %struct.AVRational, i32, i32, i32, i32, i32, i32, i32, %struct.AVChannelLayout, i32, i32, i32, i32, i32, i32 }
%struct.AVChannelLayout = type { i32, i32, %union.anon.0, ptr }
%union.anon.0 = type { i64 }

@.str.16 = private unnamed_addr constant [40 x i8] c"Error while parsing ts expression '%s'\0A\00", align 1
@.str.17 = private unnamed_addr constant [46 x i8] c"Error while parsing duration expression '%s'\0A\00", align 1
@.str.18 = private unnamed_addr constant [41 x i8] c"Error while parsing pts expression '%s'\0A\00", align 1
@.str.19 = private unnamed_addr constant [41 x i8] c"Error while parsing dts expression '%s'\0A\00", align 1

; Function Attrs: inlinehint nounwind uwtable
define internal double @av_q2d(i64 %0) #4 {
  %2 = alloca %struct.AVRational, align 4
  store i64 %0, ptr %2, align 4
  %3 = getelementptr inbounds nuw %struct.AVRational, ptr %2, i32 0, i32 0
  %4 = load i32, ptr %3, align 4, !tbaa !57
  %5 = sitofp i32 %4 to double
  %6 = getelementptr inbounds nuw %struct.AVRational, ptr %2, i32 0, i32 1
  %7 = load i32, ptr %6, align 4, !tbaa !58
  %8 = sitofp i32 %7 to double
  %9 = fdiv nsz double %5, %8
  ret double %9
}

; Function Attrs: nounwind uwtable
define internal i32 @setts_init(ptr noundef %0) #0 {
  %2 = alloca i32, align 4
  %3 = alloca ptr, align 8
  %4 = alloca ptr, align 8
  %5 = alloca i32, align 4
  %6 = alloca i32, align 4
  store ptr %0, ptr %3, align 8, !tbaa !4
  call void @llvm.lifetime.start.p0(i64 8, ptr %4) #6
  %7 = load ptr, ptr %3, align 8, !tbaa !4
  %8 = getelementptr inbounds nuw %struct.AVBSFContext, ptr %7, i32 0, i32 2
  %9 = load ptr, ptr %8, align 8, !tbaa !9
  store ptr %9, ptr %4, align 8, !tbaa !16
  call void @llvm.lifetime.start.p0(i64 4, ptr %5) #6
  %10 = call ptr @av_packet_alloc()
  %11 = load ptr, ptr %4, align 8, !tbaa !16
  %12 = getelementptr inbounds nuw %struct.SetTSContext, ptr %11, i32 0, i32 12
  store ptr %10, ptr %12, align 8, !tbaa !18
  %13 = call ptr @av_packet_alloc()
  %14 = load ptr, ptr %4, align 8, !tbaa !16
  %15 = getelementptr inbounds nuw %struct.SetTSContext, ptr %14, i32 0, i32 13
  store ptr %13, ptr %15, align 8, !tbaa !24
  %16 = call ptr @av_packet_alloc()
  %17 = load ptr, ptr %4, align 8, !tbaa !16
  %18 = getelementptr inbounds nuw %struct.SetTSContext, ptr %17, i32 0, i32 14
  store ptr %16, ptr %18, align 8, !tbaa !25
  %19 = load ptr, ptr %4, align 8, !tbaa !16
  %20 = getelementptr inbounds nuw %struct.SetTSContext, ptr %19, i32 0, i32 12
  %21 = load ptr, ptr %20, align 8, !tbaa !18
  %22 = icmp ne ptr %21, null
  br i1 %22, label %23, label %33

23:                                               ; preds = %1
  %24 = load ptr, ptr %4, align 8, !tbaa !16
  %25 = getelementptr inbounds nuw %struct.SetTSContext, ptr %24, i32 0, i32 13
  %26 = load ptr, ptr %25, align 8, !tbaa !24
  %27 = icmp ne ptr %26, null
  br i1 %27, label %28, label %33

28:                                               ; preds = %23
  %29 = load ptr, ptr %4, align 8, !tbaa !16
  %30 = getelementptr inbounds nuw %struct.SetTSContext, ptr %29, i32 0, i32 14
  %31 = load ptr, ptr %30, align 8, !tbaa !25
  %32 = icmp ne ptr %31, null
  br i1 %32, label %34, label %33

33:                                               ; preds = %28, %23, %1
  store i32 -12, ptr %2, align 4
  store i32 1, ptr %6, align 4
  br label %176

34:                                               ; preds = %28
  %35 = load ptr, ptr %4, align 8, !tbaa !16
  %36 = getelementptr inbounds nuw %struct.SetTSContext, ptr %35, i32 0, i32 8
  %37 = load ptr, ptr %4, align 8, !tbaa !16
  %38 = getelementptr inbounds nuw %struct.SetTSContext, ptr %37, i32 0, i32 1
  %39 = load ptr, ptr %38, align 8, !tbaa !26
  %40 = load ptr, ptr %3, align 8, !tbaa !4
  %41 = call i32 @av_expr_parse(ptr noundef %36, ptr noundef %39, ptr noundef @var_names, ptr noundef null, ptr noundef null, ptr noundef null, ptr noundef null, i32 noundef 0, ptr noundef %40)
  store i32 %41, ptr %5, align 4, !tbaa !27
  %42 = icmp slt i32 %41, 0
  br i1 %42, label %43, label %49

43:                                               ; preds = %34
  %44 = load ptr, ptr %3, align 8, !tbaa !4
  %45 = load ptr, ptr %4, align 8, !tbaa !16
  %46 = getelementptr inbounds nuw %struct.SetTSContext, ptr %45, i32 0, i32 1
  %47 = load ptr, ptr %46, align 8, !tbaa !26
  call void (ptr, i32, ptr, ...) @av_log(ptr noundef %44, i32 noundef 16, ptr noundef @.str.16, ptr noundef %47)
  %48 = load i32, ptr %5, align 4, !tbaa !27
  store i32 %48, ptr %2, align 4
  store i32 1, ptr %6, align 4
  br label %176

49:                                               ; preds = %34
  %50 = load ptr, ptr %4, align 8, !tbaa !16
  %51 = getelementptr inbounds nuw %struct.SetTSContext, ptr %50, i32 0, i32 11
  %52 = load ptr, ptr %4, align 8, !tbaa !16
  %53 = getelementptr inbounds nuw %struct.SetTSContext, ptr %52, i32 0, i32 4
  %54 = load ptr, ptr %53, align 8, !tbaa !28
  %55 = load ptr, ptr %3, align 8, !tbaa !4
  %56 = call i32 @av_expr_parse(ptr noundef %51, ptr noundef %54, ptr noundef @var_names, ptr noundef null, ptr noundef null, ptr noundef null, ptr noundef null, i32 noundef 0, ptr noundef %55)
  store i32 %56, ptr %5, align 4, !tbaa !27
  %57 = icmp slt i32 %56, 0
  br i1 %57, label %58, label %64

58:                                               ; preds = %49
  %59 = load ptr, ptr %3, align 8, !tbaa !4
  %60 = load ptr, ptr %4, align 8, !tbaa !16
  %61 = getelementptr inbounds nuw %struct.SetTSContext, ptr %60, i32 0, i32 4
  %62 = load ptr, ptr %61, align 8, !tbaa !28
  call void (ptr, i32, ptr, ...) @av_log(ptr noundef %59, i32 noundef 16, ptr noundef @.str.17, ptr noundef %62)
  %63 = load i32, ptr %5, align 4, !tbaa !27
  store i32 %63, ptr %2, align 4
  store i32 1, ptr %6, align 4
  br label %176

64:                                               ; preds = %49
  %65 = load ptr, ptr %4, align 8, !tbaa !16
  %66 = getelementptr inbounds nuw %struct.SetTSContext, ptr %65, i32 0, i32 2
  %67 = load ptr, ptr %66, align 8, !tbaa !29
  %68 = icmp ne ptr %67, null
  br i1 %68, label %69, label %85

69:                                               ; preds = %64
  %70 = load ptr, ptr %4, align 8, !tbaa !16
  %71 = getelementptr inbounds nuw %struct.SetTSContext, ptr %70, i32 0, i32 9
  %72 = load ptr, ptr %4, align 8, !tbaa !16
  %73 = getelementptr inbounds nuw %struct.SetTSContext, ptr %72, i32 0, i32 2
  %74 = load ptr, ptr %73, align 8, !tbaa !29
  %75 = load ptr, ptr %3, align 8, !tbaa !4
  %76 = call i32 @av_expr_parse(ptr noundef %71, ptr noundef %74, ptr noundef @var_names, ptr noundef null, ptr noundef null, ptr noundef null, ptr noundef null, i32 noundef 0, ptr noundef %75)
  store i32 %76, ptr %5, align 4, !tbaa !27
  %77 = icmp slt i32 %76, 0
  br i1 %77, label %78, label %84

78:                                               ; preds = %69
  %79 = load ptr, ptr %3, align 8, !tbaa !4
  %80 = load ptr, ptr %4, align 8, !tbaa !16
  %81 = getelementptr inbounds nuw %struct.SetTSContext, ptr %80, i32 0, i32 2
  %82 = load ptr, ptr %81, align 8, !tbaa !29
  call void (ptr, i32, ptr, ...) @av_log(ptr noundef %79, i32 noundef 16, ptr noundef @.str.18, ptr noundef %82)
  %83 = load i32, ptr %5, align 4, !tbaa !27
  store i32 %83, ptr %2, align 4
  store i32 1, ptr %6, align 4
  br label %176

84:                                               ; preds = %69
  br label %85

85:                                               ; preds = %84, %64
  %86 = load ptr, ptr %4, align 8, !tbaa !16
  %87 = getelementptr inbounds nuw %struct.SetTSContext, ptr %86, i32 0, i32 3
  %88 = load ptr, ptr %87, align 8, !tbaa !30
  %89 = icmp ne ptr %88, null
  br i1 %89, label %90, label %106

90:                                               ; preds = %85
  %91 = load ptr, ptr %4, align 8, !tbaa !16
  %92 = getelementptr inbounds nuw %struct.SetTSContext, ptr %91, i32 0, i32 10
  %93 = load ptr, ptr %4, align 8, !tbaa !16
  %94 = getelementptr inbounds nuw %struct.SetTSContext, ptr %93, i32 0, i32 3
  %95 = load ptr, ptr %94, align 8, !tbaa !30
  %96 = load ptr, ptr %3, align 8, !tbaa !4
  %97 = call i32 @av_expr_parse(ptr noundef %92, ptr noundef %95, ptr noundef @var_names, ptr noundef null, ptr noundef null, ptr noundef null, ptr noundef null, i32 noundef 0, ptr noundef %96)
  store i32 %97, ptr %5, align 4, !tbaa !27
  %98 = icmp slt i32 %97, 0
  br i1 %98, label %99, label %105

99:                                               ; preds = %90
  %100 = load ptr, ptr %3, align 8, !tbaa !4
  %101 = load ptr, ptr %4, align 8, !tbaa !16
  %102 = getelementptr inbounds nuw %struct.SetTSContext, ptr %101, i32 0, i32 3
  %103 = load ptr, ptr %102, align 8, !tbaa !30
  call void (ptr, i32, ptr, ...) @av_log(ptr noundef %100, i32 noundef 16, ptr noundef @.str.19, ptr noundef %103)
  %104 = load i32, ptr %5, align 4, !tbaa !27
  store i32 %104, ptr %2, align 4
  store i32 1, ptr %6, align 4
  br label %176

105:                                              ; preds = %90
  br label %106

106:                                              ; preds = %105, %85
  %107 = load ptr, ptr %4, align 8, !tbaa !16
  %108 = getelementptr inbounds nuw %struct.SetTSContext, ptr %107, i32 0, i32 5
  %109 = getelementptr inbounds nuw %struct.AVRational, ptr %108, i32 0, i32 0
  %110 = load i32, ptr %109, align 8, !tbaa !31
  %111 = icmp sgt i32 %110, 0
  br i1 %111, label %112, label %123

112:                                              ; preds = %106
  %113 = load ptr, ptr %4, align 8, !tbaa !16
  %114 = getelementptr inbounds nuw %struct.SetTSContext, ptr %113, i32 0, i32 5
  %115 = getelementptr inbounds nuw %struct.AVRational, ptr %114, i32 0, i32 1
  %116 = load i32, ptr %115, align 4, !tbaa !32
  %117 = icmp sgt i32 %116, 0
  br i1 %117, label %118, label %123

118:                                              ; preds = %112
  %119 = load ptr, ptr %3, align 8, !tbaa !4
  %120 = getelementptr inbounds nuw %struct.AVBSFContext, ptr %119, i32 0, i32 6
  %121 = load ptr, ptr %4, align 8, !tbaa !16
  %122 = getelementptr inbounds nuw %struct.SetTSContext, ptr %121, i32 0, i32 5
  call void @llvm.memcpy.p0.p0.i64(ptr align 8 %120, ptr align 8 %122, i64 8, i1 false), !tbaa.struct !33
  br label %123

123:                                              ; preds = %118, %112, %106
  %124 = load ptr, ptr %4, align 8, !tbaa !16
  %125 = getelementptr inbounds nuw %struct.SetTSContext, ptr %124, i32 0, i32 6
  store i64 0, ptr %125, align 8, !tbaa !34
  %126 = load ptr, ptr %4, align 8, !tbaa !16
  %127 = getelementptr inbounds nuw %struct.SetTSContext, ptr %126, i32 0, i32 7
  %128 = getelementptr inbounds [21 x double], ptr %127, i64 0, i64 15
  store double 0xC3E0000000000000, ptr %128, align 8, !tbaa !35
  %129 = load ptr, ptr %4, align 8, !tbaa !16
  %130 = getelementptr inbounds nuw %struct.SetTSContext, ptr %129, i32 0, i32 7
  %131 = getelementptr inbounds [21 x double], ptr %130, i64 0, i64 16
  store double 0xC3E0000000000000, ptr %131, align 8, !tbaa !35
  %132 = load ptr, ptr %4, align 8, !tbaa !16
  %133 = getelementptr inbounds nuw %struct.SetTSContext, ptr %132, i32 0, i32 7
  %134 = getelementptr inbounds [21 x double], ptr %133, i64 0, i64 20
  store double 0xC3E0000000000000, ptr %134, align 8, !tbaa !35
  %135 = load ptr, ptr %3, align 8, !tbaa !4
  %136 = getelementptr inbounds nuw %struct.AVBSFContext, ptr %135, i32 0, i32 5
  %137 = getelementptr inbounds nuw %struct.AVRational, ptr %136, i32 0, i32 1
  %138 = load i32, ptr %137, align 4, !tbaa !37
  %139 = icmp ne i32 %138, 0
  br i1 %139, label %140, label %145

140:                                              ; preds = %123
  %141 = load ptr, ptr %3, align 8, !tbaa !4
  %142 = getelementptr inbounds nuw %struct.AVBSFContext, ptr %141, i32 0, i32 5
  %143 = load i64, ptr %142, align 8
  %144 = call nsz double @av_q2d(i64 %143)
  br label %146

145:                                              ; preds = %123
  br label %146

146:                                              ; preds = %145, %140
  %147 = phi nsz double [ %144, %140 ], [ 0.000000e+00, %145 ]
  %148 = load ptr, ptr %4, align 8, !tbaa !16
  %149 = getelementptr inbounds nuw %struct.SetTSContext, ptr %148, i32 0, i32 7
  %150 = getelementptr inbounds [21 x double], ptr %149, i64 0, i64 17
  store double %147, ptr %150, align 8, !tbaa !35
  %151 = load ptr, ptr %3, align 8, !tbaa !4
  %152 = getelementptr inbounds nuw %struct.AVBSFContext, ptr %151, i32 0, i32 6
  %153 = getelementptr inbounds nuw %struct.AVRational, ptr %152, i32 0, i32 1
  %154 = load i32, ptr %153, align 4, !tbaa !38
  %155 = icmp ne i32 %154, 0
  br i1 %155, label %156, label %161

156:                                              ; preds = %146
  %157 = load ptr, ptr %3, align 8, !tbaa !4
  %158 = getelementptr inbounds nuw %struct.AVBSFContext, ptr %157, i32 0, i32 6
  %159 = load i64, ptr %158, align 8
  %160 = call nsz double @av_q2d(i64 %159)
  br label %162

161:                                              ; preds = %146
  br label %162

162:                                              ; preds = %161, %156
  %163 = phi nsz double [ %160, %156 ], [ 0.000000e+00, %161 ]
  %164 = load ptr, ptr %4, align 8, !tbaa !16
  %165 = getelementptr inbounds nuw %struct.SetTSContext, ptr %164, i32 0, i32 7
  %166 = getelementptr inbounds [21 x double], ptr %165, i64 0, i64 18
  store double %163, ptr %166, align 8, !tbaa !35
  %167 = load ptr, ptr %3, align 8, !tbaa !4
  %168 = getelementptr inbounds nuw %struct.AVBSFContext, ptr %167, i32 0, i32 3
  %169 = load ptr, ptr %168, align 8, !tbaa !39
  %170 = getelementptr inbounds nuw %struct.AVCodecParameters, ptr %169, i32 0, i32 25
  %171 = load i32, ptr %170, align 8, !tbaa !40
  %172 = sitofp i32 %171 to double
  %173 = load ptr, ptr %4, align 8, !tbaa !16
  %174 = getelementptr inbounds nuw %struct.SetTSContext, ptr %173, i32 0, i32 7
  %175 = getelementptr inbounds [21 x double], ptr %174, i64 0, i64 19
  store double %172, ptr %175, align 8, !tbaa !35
  store i32 0, ptr %2, align 4
  store i32 1, ptr %6, align 4
  br label %176

176:                                              ; preds = %162, %99, %78, %58, %43, %33
  call void @llvm.lifetime.end.p0(i64 4, ptr %5) #6
  call void @llvm.lifetime.end.p0(i64 8, ptr %4) #6
  %177 = load i32, ptr %2, align 4
  ret i32 %177
}