; Function Attrs: nounwind uwtable
define internal range(i32 -2147483648, 1) i32 @setts_init(ptr noundef %0) #0 {
  %2 = getelementptr inbounds nuw i8, ptr %0, i64 16
  %3 = load ptr, ptr %2, align 8, !tbaa !4
  %4 = tail call ptr @av_packet_alloc() #3
  %5 = getelementptr inbounds nuw i8, ptr %3, i64 256
  store ptr %4, ptr %5, align 8, !tbaa !14
  %6 = tail call ptr @av_packet_alloc() #3
  %7 = getelementptr inbounds nuw i8, ptr %3, i64 264
  store ptr %6, ptr %7, align 8, !tbaa !20
  %8 = tail call ptr @av_packet_alloc() #3
  %9 = getelementptr inbounds nuw i8, ptr %3, i64 272
  store ptr %8, ptr %9, align 8, !tbaa !21
  %10 = load ptr, ptr %5, align 8, !tbaa !14
  %.not = icmp eq ptr %10, null
  br i1 %.not, label %91, label %11

11:                                               ; preds = %1
  %12 = load ptr, ptr %7, align 8, !tbaa !20
  %.not55 = icmp eq ptr %12, null
  %.not56 = icmp eq ptr %8, null
  %or.cond = select i1 %.not55, i1 true, i1 %.not56
  br i1 %or.cond, label %91, label %13

13:                                               ; preds = %11
  %14 = getelementptr inbounds nuw i8, ptr %3, i64 224
  %15 = getelementptr inbounds nuw i8, ptr %3, i64 8
  %16 = load ptr, ptr %15, align 8, !tbaa !22
  %17 = tail call i32 @av_expr_parse(ptr noundef nonnull %14, ptr noundef %16, ptr noundef nonnull @var_names, ptr noundef null, ptr noundef null, ptr noundef null, ptr noundef null, i32 noundef 0, ptr noundef nonnull %0) #3
  %18 = icmp slt i32 %17, 0
  br i1 %18, label %19, label %21

19:                                               ; preds = %13
  %20 = load ptr, ptr %15, align 8, !tbaa !22
  tail call void (ptr, i32, ptr, ...) @av_log(ptr noundef nonnull %0, i32 noundef 16, ptr noundef nonnull @.str.16, ptr noundef %20) #3
  br label %91

21:                                               ; preds = %13
  %22 = getelementptr inbounds nuw i8, ptr %3, i64 248
  %23 = getelementptr inbounds nuw i8, ptr %3, i64 32
  %24 = load ptr, ptr %23, align 8, !tbaa !23
  %25 = tail call i32 @av_expr_parse(ptr noundef nonnull %22, ptr noundef %24, ptr noundef nonnull @var_names, ptr noundef null, ptr noundef null, ptr noundef null, ptr noundef null, i32 noundef 0, ptr noundef nonnull %0) #3
  %26 = icmp slt i32 %25, 0
  br i1 %26, label %27, label %29

27:                                               ; preds = %21
  %28 = load ptr, ptr %23, align 8, !tbaa !23
  tail call void (ptr, i32, ptr, ...) @av_log(ptr noundef nonnull %0, i32 noundef 16, ptr noundef nonnull @.str.17, ptr noundef %28) #3
  br label %91

29:                                               ; preds = %21
  %30 = getelementptr inbounds nuw i8, ptr %3, i64 16
  %31 = load ptr, ptr %30, align 8, !tbaa !24
  %.not57 = icmp eq ptr %31, null
  br i1 %.not57, label %38, label %32

32:                                               ; preds = %29
  %33 = getelementptr inbounds nuw i8, ptr %3, i64 232
  %34 = tail call i32 @av_expr_parse(ptr noundef nonnull %33, ptr noundef nonnull %31, ptr noundef nonnull @var_names, ptr noundef null, ptr noundef null, ptr noundef null, ptr noundef null, i32 noundef 0, ptr noundef nonnull %0) #3
  %35 = icmp slt i32 %34, 0
  br i1 %35, label %36, label %38

36:                                               ; preds = %32
  %37 = load ptr, ptr %30, align 8, !tbaa !24
  tail call void (ptr, i32, ptr, ...) @av_log(ptr noundef nonnull %0, i32 noundef 16, ptr noundef nonnull @.str.18, ptr noundef %37) #3
  br label %91

38:                                               ; preds = %32, %29
  %39 = getelementptr inbounds nuw i8, ptr %3, i64 24
  %40 = load ptr, ptr %39, align 8, !tbaa !25
  %.not58 = icmp eq ptr %40, null
  br i1 %.not58, label %47, label %41

41:                                               ; preds = %38
  %42 = getelementptr inbounds nuw i8, ptr %3, i64 240
  %43 = tail call i32 @av_expr_parse(ptr noundef nonnull %42, ptr noundef nonnull %40, ptr noundef nonnull @var_names, ptr noundef null, ptr noundef null, ptr noundef null, ptr noundef null, i32 noundef 0, ptr noundef nonnull %0) #3
  %44 = icmp slt i32 %43, 0
  br i1 %44, label %45, label %47

45:                                               ; preds = %41
  %46 = load ptr, ptr %39, align 8, !tbaa !25
  tail call void (ptr, i32, ptr, ...) @av_log(ptr noundef nonnull %0, i32 noundef 16, ptr noundef nonnull @.str.19, ptr noundef %46) #3
  br label %91

47:                                               ; preds = %41, %38
  %48 = getelementptr inbounds nuw i8, ptr %3, i64 40
  %49 = load i32, ptr %48, align 8, !tbaa !26
  %50 = icmp sgt i32 %49, 0
  br i1 %50, label %51, label %58

51:                                               ; preds = %47
  %52 = getelementptr inbounds nuw i8, ptr %3, i64 44
  %53 = load i32, ptr %52, align 4, !tbaa !27
  %54 = icmp sgt i32 %53, 0
  br i1 %54, label %55, label %58

55:                                               ; preds = %51
  %56 = getelementptr inbounds nuw i8, ptr %0, i64 48
  %57 = load i64, ptr %48, align 8
  store i64 %57, ptr %56, align 8
  br label %58

58:                                               ; preds = %55, %51, %47
  %59 = getelementptr inbounds nuw i8, ptr %3, i64 48
  store i64 0, ptr %59, align 8, !tbaa !28
  %60 = getelementptr inbounds nuw i8, ptr %3, i64 176
  store double 0xC3E0000000000000, ptr %60, align 8, !tbaa !29
  %61 = getelementptr inbounds nuw i8, ptr %3, i64 184
  store double 0xC3E0000000000000, ptr %61, align 8, !tbaa !29
  %62 = getelementptr inbounds nuw i8, ptr %3, i64 216
  store double 0xC3E0000000000000, ptr %62, align 8, !tbaa !29
  %63 = getelementptr inbounds nuw i8, ptr %0, i64 44
  %64 = load i32, ptr %63, align 4, !tbaa !31
  %.not59 = icmp eq i32 %64, 0
  br i1 %.not59, label %71, label %65

65:                                               ; preds = %58
  %66 = getelementptr inbounds nuw i8, ptr %0, i64 40
  %67 = load i64, ptr %66, align 8
  %.sroa.0.0.extract.trunc.i = trunc i64 %67 to i32
  %.sroa.2.0.extract.shift.i = lshr i64 %67, 32
  %.sroa.2.0.extract.trunc.i = trunc nuw i64 %.sroa.2.0.extract.shift.i to i32
  %68 = sitofp i32 %.sroa.0.0.extract.trunc.i to double
  %69 = sitofp i32 %.sroa.2.0.extract.trunc.i to double
  %70 = fdiv nsz double %68, %69
  br label %71

71:                                               ; preds = %58, %65
  %72 = phi nsz double [ %70, %65 ], [ 0.000000e+00, %58 ]
  %73 = getelementptr inbounds nuw i8, ptr %3, i64 192
  store double %72, ptr %73, align 8, !tbaa !29
  %74 = getelementptr inbounds nuw i8, ptr %0, i64 52
  %75 = load i32, ptr %74, align 4, !tbaa !32
  %.not60 = icmp eq i32 %75, 0
  br i1 %.not60, label %82, label %76

76:                                               ; preds = %71
  %77 = getelementptr inbounds nuw i8, ptr %0, i64 48
  %78 = load i64, ptr %77, align 8
  %.sroa.0.0.extract.trunc.i61 = trunc i64 %78 to i32
  %.sroa.2.0.extract.shift.i62 = lshr i64 %78, 32
  %.sroa.2.0.extract.trunc.i63 = trunc nuw i64 %.sroa.2.0.extract.shift.i62 to i32
  %79 = sitofp i32 %.sroa.0.0.extract.trunc.i61 to double
  %80 = sitofp i32 %.sroa.2.0.extract.trunc.i63 to double
  %81 = fdiv nsz double %79, %80
  br label %82

82:                                               ; preds = %71, %76
  %83 = phi nsz double [ %81, %76 ], [ 0.000000e+00, %71 ]
  %84 = getelementptr inbounds nuw i8, ptr %3, i64 200
  store double %83, ptr %84, align 8, !tbaa !29
  %85 = getelementptr inbounds nuw i8, ptr %0, i64 24
  %86 = load ptr, ptr %85, align 8, !tbaa !33
  %87 = getelementptr inbounds nuw i8, ptr %86, i64 152
  %88 = load i32, ptr %87, align 8, !tbaa !34
  %89 = sitofp i32 %88 to double
  %90 = getelementptr inbounds nuw i8, ptr %3, i64 208
  store double %89, ptr %90, align 8, !tbaa !29
  br label %91

91:                                               ; preds = %1, %11, %82, %45, %36, %27, %19
  %.0 = phi i32 [ %17, %19 ], [ %25, %27 ], [ %34, %36 ], [ %43, %45 ], [ 0, %82 ], [ -12, %11 ], [ -12, %1 ]
  ret i32 %.0
}